; Function Attrs: mustprogress nounwind uwtable
define hidden noundef ptr @_ZN7IRScope11build_graphEP11Compilationi(ptr noundef nonnull align 8 dereferenceable(96) %0, ptr noundef %1, i32 noundef %2) local_unnamed_addr #0 align 2 {
  %4 = alloca %class.GraphBuilder, align 8
  call void @_ZN12GraphBuilderC1EP11CompilationP7IRScope(ptr noundef nonnull align 8 dereferenceable(97) %4, ptr noundef %1, ptr noundef nonnull %0) #19
  %5 = getelementptr inbounds i8, ptr %1, i64 112
  %6 = load ptr, ptr %5, align 8
  %.not = icmp eq ptr %6, null
  %7 = getelementptr inbounds i8, ptr %4, i64 48
  %8 = load ptr, ptr %7, align 8
  %.0 = select i1 %.not, ptr %8, ptr null
  ret ptr %.0
}